target datalayout = "e-m:e-p270:32:32-p271:32:32-p272:64:64-i64:64-i128:128-f80:128-n8:16:32:64-S128"
target triple = "x86_64-pc-linux-gnu"

@_ZN13MarchingCubes9cornerMapE = constant [8 x i32] [i32 0, i32 1, i32 3, i32 2, i32 4, i32 5, i32 7, i32 6], align 16

; Function Attrs: mustprogress nounwind uwtable
define noundef i32 @_ZN4Cube11CornerIndexEiii(i32 noundef %0, i32 noundef %1, i32 noundef %2) #1 align 2 {
  %4 = alloca i32, align 4
  %5 = alloca i32, align 4
  %6 = alloca i32, align 4
  store i32 %0, ptr %4, align 4
  store i32 %1, ptr %5, align 4
  store i32 %2, ptr %6, align 4
  %7 = load i32, ptr %6, align 4
  %8 = shl i32 %7, 2
  %9 = load i32, ptr %5, align 4
  %10 = shl i32 %9, 1
  %11 = or i32 %8, %10
  %12 = load i32, ptr %4, align 4
  %13 = or i32 %11, %12
  ret i32 %13
}

; Function Attrs: mustprogress nounwind uwtable
define void @_ZN4Cube15FactorFaceIndexEiRiS0_S0_(i32 noundef %0, ptr noundef nonnull align 4 dereferenceable(4) %1, ptr noundef nonnull align 4 dereferenceable(4) %2, ptr noundef nonnull align 4 dereferenceable(4) %3) #1 align 2 {
  %5 = alloca i32, align 4
  %6 = alloca ptr, align 8
  %7 = alloca ptr, align 8
  %8 = alloca ptr, align 8
  store i32 %0, ptr %5, align 4
  store ptr %1, ptr %6, align 8
  store ptr %2, ptr %7, align 8
  store ptr %3, ptr %8, align 8
  %9 = load ptr, ptr %8, align 8
  store i32 0, ptr %9, align 4
  %10 = load ptr, ptr %7, align 8
  store i32 0, ptr %10, align 4
  %11 = load ptr, ptr %6, align 8
  store i32 0, ptr %11, align 4
  %12 = load i32, ptr %5, align 4
  switch i32 %12, label %25 [
    i32 0, label %13
    i32 1, label %15
    i32 2, label %17
    i32 3, label %19
    i32 4, label %21
    i32 5, label %23
  ]

13:                                               ; preds = %4
  %14 = load ptr, ptr %6, align 8
  store i32 -1, ptr %14, align 4
  br label %25

15:                                               ; preds = %4
  %16 = load ptr, ptr %6, align 8
  store i32 1, ptr %16, align 4
  br label %25

17:                                               ; preds = %4
  %18 = load ptr, ptr %7, align 8
  store i32 -1, ptr %18, align 4
  br label %25

19:                                               ; preds = %4
  %20 = load ptr, ptr %7, align 8
  store i32 1, ptr %20, align 4
  br label %25

21:                                               ; preds = %4
  %22 = load ptr, ptr %8, align 8
  store i32 -1, ptr %22, align 4
  br label %25

23:                                               ; preds = %4
  %24 = load ptr, ptr %8, align 8
  store i32 1, ptr %24, align 4
  br label %25

25:                                               ; preds = %23, %21, %19, %17, %15, %13, %4
  ret void
}

; Function Attrs: mustprogress nounwind uwtable
define noundef zeroext i8 @_ZN13MarchingCubes12GetFaceIndexEhi(i8 noundef zeroext %0, i32 noundef %1) #1 align 2 {
  %3 = alloca i8, align 1
  %4 = alloca i32, align 4
  %5 = alloca i32, align 4
  %6 = alloca i32, align 4
  %7 = alloca i32, align 4
  %8 = alloca i32, align 4
  %9 = alloca i32, align 4
  %10 = alloca i8, align 1
  %11 = alloca [2 x [2 x i32]], align 16
  store i8 %0, ptr %3, align 1
  store i32 %1, ptr %4, align 4
  store i8 0, ptr %10, align 1
  %12 = load i32, ptr %4, align 4
  call void @_ZN4Cube15FactorFaceIndexEiRiS0_S0_(i32 noundef %12, ptr noundef nonnull align 4 dereferenceable(4) %7, ptr noundef nonnull align 4 dereferenceable(4) %8, ptr noundef nonnull align 4 dereferenceable(4) %9)
  %13 = load i32, ptr %7, align 4
  %14 = icmp slt i32 %13, 0
  br i1 %14, label %15, label %48

15:                                               ; preds = %2
  store i32 0, ptr %5, align 4
  br label %16

16:                                               ; preds = %44, %15
  %17 = load i32, ptr %5, align 4
  %18 = icmp slt i32 %17, 2
  br i1 %18, label %19, label %47

19:                                               ; preds = %16
  store i32 0, ptr %6, align 4
  br label %20

20:                                               ; preds = %40, %19
  %21 = load i32, ptr %6, align 4
  %22 = icmp slt i32 %21, 2
  br i1 %22, label %23, label %43

23:                                               ; preds = %20
  %24 = load i8, ptr %3, align 1
  %25 = zext i8 %24 to i32
  %26 = load i32, ptr %5, align 4
  %27 = load i32, ptr %6, align 4
  %28 = call noundef i32 @_ZN4Cube11CornerIndexEiii(i32 noundef 0, i32 noundef %26, i32 noundef %27)
  %29 = sext i32 %28 to i64
  %30 = getelementptr inbounds [8 x i32], ptr @_ZN13MarchingCubes9cornerMapE, i64 0, i64 %29
  %31 = load i32, ptr %30, align 4
  %32 = shl i32 1, %31
  %33 = and i32 %25, %32
  %34 = load i32, ptr %5, align 4
  %35 = sext i32 %34 to i64
  %36 = getelementptr inbounds [2 x [2 x i32]], ptr %11, i64 0, i64 %35
  %37 = load i32, ptr %6, align 4
  %38 = sext i32 %37 to i64
  %39 = getelementptr inbounds [2 x i32], ptr %36, i64 0, i64 %38
  store i32 %33, ptr %39, align 4
  br label %40

40:                                               ; preds = %23
  %41 = load i32, ptr %6, align 4
  %42 = add nsw i32 %41, 1
  store i32 %42, ptr %6, align 4
  br label %20, !llvm.loop !40

43:                                               ; preds = %20
  br label %44

44:                                               ; preds = %43
  %45 = load i32, ptr %5, align 4
  %46 = add nsw i32 %45, 1
  store i32 %46, ptr %5, align 4
  br label %16, !llvm.loop !41

47:                                               ; preds = %16
  br label %233

48:                                               ; preds = %2
  %49 = load i32, ptr %7, align 4
  %50 = icmp sgt i32 %49, 0
  br i1 %50, label %51, label %84

51:                                               ; preds = %48
  store i32 0, ptr %5, align 4
  br label %52

52:                                               ; preds = %80, %51
  %53 = load i32, ptr %5, align 4
  %54 = icmp slt i32 %53, 2
  br i1 %54, label %55, label %83

55:                                               ; preds = %52
  store i32 0, ptr %6, align 4
  br label %56

56:                                               ; preds = %76, %55
  %57 = load i32, ptr %6, align 4
  %58 = icmp slt i32 %57, 2
  br i1 %58, label %59, label %79

59:                                               ; preds = %56
  %60 = load i8, ptr %3, align 1
  %61 = zext i8 %60 to i32
  %62 = load i32, ptr %5, align 4
  %63 = load i32, ptr %6, align 4
  %64 = call noundef i32 @_ZN4Cube11CornerIndexEiii(i32 noundef 1, i32 noundef %62, i32 noundef %63)
  %65 = sext i32 %64 to i64
  %66 = getelementptr inbounds [8 x i32], ptr @_ZN13MarchingCubes9cornerMapE, i64 0, i64 %65
  %67 = load i32, ptr %66, align 4
  %68 = shl i32 1, %67
  %69 = and i32 %61, %68
  %70 = load i32, ptr %5, align 4
  %71 = sext i32 %70 to i64
  %72 = getelementptr inbounds [2 x [2 x i32]], ptr %11, i64 0, i64 %71
  %73 = load i32, ptr %6, align 4
  %74 = sext i32 %73 to i64
  %75 = getelementptr inbounds [2 x i32], ptr %72, i64 0, i64 %74
  store i32 %69, ptr %75, align 4
  br label %76

76:                                               ; preds = %59
  %77 = load i32, ptr %6, align 4
  %78 = add nsw i32 %77, 1
  store i32 %78, ptr %6, align 4
  br label %56, !llvm.loop !42

79:                                               ; preds = %56
  br label %80

80:                                               ; preds = %79
  %81 = load i32, ptr %5, align 4
  %82 = add nsw i32 %81, 1
  store i32 %82, ptr %5, align 4
  br label %52, !llvm.loop !43

83:                                               ; preds = %52
  br label %232

84:                                               ; preds = %48
  %85 = load i32, ptr %8, align 4
  %86 = icmp slt i32 %85, 0
  br i1 %86, label %87, label %120

87:                                               ; preds = %84
  store i32 0, ptr %5, align 4
  br label %88

88:                                               ; preds = %116, %87
  %89 = load i32, ptr %5, align 4
  %90 = icmp slt i32 %89, 2
  br i1 %90, label %91, label %119

91:                                               ; preds = %88
  store i32 0, ptr %6, align 4
  br label %92

92:                                               ; preds = %112, %91
  %93 = load i32, ptr %6, align 4
  %94 = icmp slt i32 %93, 2
  br i1 %94, label %95, label %115

95:                                               ; preds = %92
  %96 = load i8, ptr %3, align 1
  %97 = zext i8 %96 to i32
  %98 = load i32, ptr %5, align 4
  %99 = load i32, ptr %6, align 4
  %100 = call noundef i32 @_ZN4Cube11CornerIndexEiii(i32 noundef %98, i32 noundef 0, i32 noundef %99)
  %101 = sext i32 %100 to i64
  %102 = getelementptr inbounds [8 x i32], ptr @_ZN13MarchingCubes9cornerMapE, i64 0, i64 %101
  %103 = load i32, ptr %102, align 4
  %104 = shl i32 1, %103
  %105 = and i32 %97, %104
  %106 = load i32, ptr %5, align 4
  %107 = sext i32 %106 to i64
  %108 = getelementptr inbounds [2 x [2 x i32]], ptr %11, i64 0, i64 %107
  %109 = load i32, ptr %6, align 4
  %110 = sext i32 %109 to i64
  %111 = getelementptr inbounds [2 x i32], ptr %108, i64 0, i64 %110
  store i32 %105, ptr %111, align 4
  br label %112

112:                                              ; preds = %95
  %113 = load i32, ptr %6, align 4
  %114 = add nsw i32 %113, 1
  store i32 %114, ptr %6, align 4
  br label %92, !llvm.loop !44

115:                                              ; preds = %92
  br label %116

116:                                              ; preds = %115
  %117 = load i32, ptr %5, align 4
  %118 = add nsw i32 %117, 1
  store i32 %118, ptr %5, align 4
  br label %88, !llvm.loop !45

119:                                              ; preds = %88
  br label %231

120:                                              ; preds = %84
  %121 = load i32, ptr %8, align 4
  %122 = icmp sgt i32 %121, 0
  br i1 %122, label %123, label %156

123:                                              ; preds = %120
  store i32 0, ptr %5, align 4
  br label %124

124:                                              ; preds = %152, %123
  %125 = load i32, ptr %5, align 4
  %126 = icmp slt i32 %125, 2
  br i1 %126, label %127, label %155

127:                                              ; preds = %124
  store i32 0, ptr %6, align 4
  br label %128

128:                                              ; preds = %148, %127
  %129 = load i32, ptr %6, align 4
  %130 = icmp slt i32 %129, 2
  br i1 %130, label %131, label %151

131:                                              ; preds = %128
  %132 = load i8, ptr %3, align 1
  %133 = zext i8 %132 to i32
  %134 = load i32, ptr %5, align 4
  %135 = load i32, ptr %6, align 4
  %136 = call noundef i32 @_ZN4Cube11CornerIndexEiii(i32 noundef %134, i32 noundef 1, i32 noundef %135)
  %137 = sext i32 %136 to i64
  %138 = getelementptr inbounds [8 x i32], ptr @_ZN13MarchingCubes9cornerMapE, i64 0, i64 %137
  %139 = load i32, ptr %138, align 4
  %140 = shl i32 1, %139
  %141 = and i32 %133, %140
  %142 = load i32, ptr %5, align 4
  %143 = sext i32 %142 to i64
  %144 = getelementptr inbounds [2 x [2 x i32]], ptr %11, i64 0, i64 %143
  %145 = load i32, ptr %6, align 4
  %146 = sext i32 %145 to i64
  %147 = getelementptr inbounds [2 x i32], ptr %144, i64 0, i64 %146
  store i32 %141, ptr %147, align 4
  br label %148

148:                                              ; preds = %131
  %149 = load i32, ptr %6, align 4
  %150 = add nsw i32 %149, 1
  store i32 %150, ptr %6, align 4
  br label %128, !llvm.loop !46

151:                                              ; preds = %128
  br label %152

152:                                              ; preds = %151
  %153 = load i32, ptr %5, align 4
  %154 = add nsw i32 %153, 1
  store i32 %154, ptr %5, align 4
  br label %124, !llvm.loop !47

155:                                              ; preds = %124
  br label %230

156:                                              ; preds = %120
  %157 = load i32, ptr %9, align 4
  %158 = icmp slt i32 %157, 0
  br i1 %158, label %159, label %192

159:                                              ; preds = %156
  store i32 0, ptr %5, align 4
  br label %160

160:                                              ; preds = %188, %159
  %161 = load i32, ptr %5, align 4
  %162 = icmp slt i32 %161, 2
  br i1 %162, label %163, label %191

163:                                              ; preds = %160
  store i32 0, ptr %6, align 4
  br label %164

164:                                              ; preds = %184, %163
  %165 = load i32, ptr %6, align 4
  %166 = icmp slt i32 %165, 2
  br i1 %166, label %167, label %187

167:                                              ; preds = %164
  %168 = load i8, ptr %3, align 1
  %169 = zext i8 %168 to i32
  %170 = load i32, ptr %5, align 4
  %171 = load i32, ptr %6, align 4
  %172 = call noundef i32 @_ZN4Cube11CornerIndexEiii(i32 noundef %170, i32 noundef %171, i32 noundef 1)
  %173 = sext i32 %172 to i64
  %174 = getelementptr inbounds [8 x i32], ptr @_ZN13MarchingCubes9cornerMapE, i64 0, i64 %173
  %175 = load i32, ptr %174, align 4
  %176 = shl i32 1, %175
  %177 = and i32 %169, %176
  %178 = load i32, ptr %5, align 4
  %179 = sext i32 %178 to i64
  %180 = getelementptr inbounds [2 x [2 x i32]], ptr %11, i64 0, i64 %179
  %181 = load i32, ptr %6, align 4
  %182 = sext i32 %181 to i64
  %183 = getelementptr inbounds [2 x i32], ptr %180, i64 0, i64 %182
  store i32 %177, ptr %183, align 4
  br label %184

184:                                              ; preds = %167
  %185 = load i32, ptr %6, align 4
  %186 = add nsw i32 %185, 1
  store i32 %186, ptr %6, align 4
  br label %164, !llvm.loop !48

187:                                              ; preds = %164
  br label %188

188:                                              ; preds = %187
  %189 = load i32, ptr %5, align 4
  %190 = add nsw i32 %189, 1
  store i32 %190, ptr %5, align 4
  br label %160, !llvm.loop !49

191:                                              ; preds = %160
  br label %229

192:                                              ; preds = %156
  %193 = load i32, ptr %9, align 4
  %194 = icmp sgt i32 %193, 0
  br i1 %194, label %195, label %228

195:                                              ; preds = %192
  store i32 0, ptr %5, align 4
  br label %196

196:                                              ; preds = %224, %195
  %197 = load i32, ptr %5, align 4
  %198 = icmp slt i32 %197, 2
  br i1 %198, label %199, label %227

199:                                              ; preds = %196
  store i32 0, ptr %6, align 4
  br label %200

200:                                              ; preds = %220, %199
  %201 = load i32, ptr %6, align 4
  %202 = icmp slt i32 %201, 2
  br i1 %202, label %203, label %223

203:                                              ; preds = %200
  %204 = load i8, ptr %3, align 1
  %205 = zext i8 %204 to i32
  %206 = load i32, ptr %5, align 4
  %207 = load i32, ptr %6, align 4
  %208 = call noundef i32 @_ZN4Cube11CornerIndexEiii(i32 noundef %206, i32 noundef %207, i32 noundef 1)
  %209 = sext i32 %208 to i64
  %210 = getelementptr inbounds [8 x i32], ptr @_ZN13MarchingCubes9cornerMapE, i64 0, i64 %209
  %211 = load i32, ptr %210, align 4
  %212 = shl i32 1, %211
  %213 = and i32 %205, %212
  %214 = load i32, ptr %5, align 4
  %215 = sext i32 %214 to i64
  %216 = getelementptr inbounds [2 x [2 x i32]], ptr %11, i64 0, i64 %215
  %217 = load i32, ptr %6, align 4
  %218 = sext i32 %217 to i64
  %219 = getelementptr inbounds [2 x i32], ptr %216, i64 0, i64 %218
  store i32 %213, ptr %219, align 4
  br label %220

220:                                              ; preds = %203
  %221 = load i32, ptr %6, align 4
  %222 = add nsw i32 %221, 1
  store i32 %222, ptr %6, align 4
  br label %200, !llvm.loop !50

223:                                              ; preds = %200
  br label %224

224:                                              ; preds = %223
  %225 = load i32, ptr %5, align 4
  %226 = add nsw i32 %225, 1
  store i32 %226, ptr %5, align 4
  br label %196, !llvm.loop !51

227:                                              ; preds = %196
  br label %228

228:                                              ; preds = %227, %192
  br label %229

229:                                              ; preds = %228, %191
  br label %230

230:                                              ; preds = %229, %155
  br label %231

231:                                              ; preds = %230, %119
  br label %232

232:                                              ; preds = %231, %83
  br label %233

233:                                              ; preds = %232, %47
  %234 = getelementptr inbounds [2 x [2 x i32]], ptr %11, i64 0, i64 0
  %235 = getelementptr inbounds [2 x i32], ptr %234, i64 0, i64 0
  %236 = load i32, ptr %235, align 16
  %237 = icmp ne i32 %236, 0
  br i1 %237, label %238, label %243

238:                                              ; preds = %233
  %239 = load i8, ptr %10, align 1
  %240 = zext i8 %239 to i32
  %241 = or i32 %240, 1
  %242 = trunc i32 %241 to i8
  store i8 %242, ptr %10, align 1
  br label %243

243:                                              ; preds = %238, %233
  %244 = getelementptr inbounds [2 x [2 x i32]], ptr %11, i64 0, i64 1
  %245 = getelementptr inbounds [2 x i32], ptr %244, i64 0, i64 0
  %246 = load i32, ptr %245, align 8
  %247 = icmp ne i32 %246, 0
  br i1 %247, label %248, label %253

248:                                              ; preds = %243
  %249 = load i8, ptr %10, align 1
  %250 = zext i8 %249 to i32
  %251 = or i32 %250, 2
  %252 = trunc i32 %251 to i8
  store i8 %252, ptr %10, align 1
  br label %253

253:                                              ; preds = %248, %243
  %254 = getelementptr inbounds [2 x [2 x i32]], ptr %11, i64 0, i64 1
  %255 = getelementptr inbounds [2 x i32], ptr %254, i64 0, i64 1
  %256 = load i32, ptr %255, align 4
  %257 = icmp ne i32 %256, 0
  br i1 %257, label %258, label %263

258:                                              ; preds = %253
  %259 = load i8, ptr %10, align 1
  %260 = zext i8 %259 to i32
  %261 = or i32 %260, 4
  %262 = trunc i32 %261 to i8
  store i8 %262, ptr %10, align 1
  br label %263

263:                                              ; preds = %258, %253
  %264 = getelementptr inbounds [2 x [2 x i32]], ptr %11, i64 0, i64 0
  %265 = getelementptr inbounds [2 x i32], ptr %264, i64 0, i64 1
  %266 = load i32, ptr %265, align 4
  %267 = icmp ne i32 %266, 0
  br i1 %267, label %268, label %273

268:                                              ; preds = %263
  %269 = load i8, ptr %10, align 1
  %270 = zext i8 %269 to i32
  %271 = or i32 %270, 8
  %272 = trunc i32 %271 to i8
  store i8 %272, ptr %10, align 1
  br label %273

273:                                              ; preds = %268, %263
  %274 = load i8, ptr %10, align 1
  ret i8 %274
}