; Function Attrs: mustprogress nofree norecurse nosync nounwind willreturn memory(none) uwtable
define noundef zeroext range(i8 0, 16) i8 @_ZN13MarchingCubes12GetFaceIndexEhi(i8 noundef zeroext %0, i32 noundef %1) local_unnamed_addr #0 align 2 {
  %.sroa.0 = alloca i32, align 16
  %.sroa.7 = alloca i32, align 4
  %.sroa.14 = alloca i32, align 8
  %.sroa.21 = alloca i32, align 4
  switch i32 %1, label %.thread111 [
    i32 0, label %_ZN4Cube15FactorFaceIndexEiRiS0_S0_.exit.preheader
    i32 1, label %.preheader115
    i32 2, label %.preheader118
    i32 3, label %.preheader121
    i32 4, label %.preheader124
    i32 5, label %.preheader127
  ]

.preheader127:                                    ; preds = %2
  %3 = zext i8 %0 to i32
  br label %.preheader126

.preheader124:                                    ; preds = %2
  %4 = zext i8 %0 to i32
  br label %.preheader123

.preheader121:                                    ; preds = %2
  %5 = zext i8 %0 to i32
  br label %.preheader120

.preheader118:                                    ; preds = %2
  %6 = zext i8 %0 to i32
  br label %.preheader117

.preheader115:                                    ; preds = %2
  %7 = zext i8 %0 to i32
  br label %.preheader114

_ZN4Cube15FactorFaceIndexEiRiS0_S0_.exit.preheader: ; preds = %2
  %8 = zext i8 %0 to i32
  br label %.preheader

.preheader:                                       ; preds = %_ZN4Cube15FactorFaceIndexEiRiS0_S0_.exit.preheader, %.preheader
  %9 = phi i1 [ true, %_ZN4Cube15FactorFaceIndexEiRiS0_S0_.exit.preheader ], [ false, %.preheader ]
  %indvars.iv191.sroa.phi = phi ptr [ %.sroa.0, %_ZN4Cube15FactorFaceIndexEiRiS0_S0_.exit.preheader ], [ %.sroa.14, %.preheader ]
  %indvars.iv191.sroa.phi223 = phi ptr [ %.sroa.7, %_ZN4Cube15FactorFaceIndexEiRiS0_S0_.exit.preheader ], [ %.sroa.21, %.preheader ]
  %indvars.iv191 = phi i64 [ 0, %_ZN4Cube15FactorFaceIndexEiRiS0_S0_.exit.preheader ], [ 2, %.preheader ]
  %10 = getelementptr inbounds nuw [8 x i32], ptr @_ZN13MarchingCubes9cornerMapE, i64 0, i64 %indvars.iv191
  %11 = load i32, ptr %10, align 8
  %12 = shl nuw i32 1, %11
  %13 = and i32 %12, %8
  store i32 %13, ptr %indvars.iv191.sroa.phi, align 8
  %14 = or disjoint i64 %indvars.iv191, 4
  %15 = getelementptr inbounds nuw [8 x i32], ptr @_ZN13MarchingCubes9cornerMapE, i64 0, i64 %14
  %16 = load i32, ptr %15, align 8
  %17 = shl nuw i32 1, %16
  %18 = and i32 %17, %8
  store i32 %18, ptr %indvars.iv191.sroa.phi223, align 4
  br i1 %9, label %.preheader, label %.thread111, !llvm.loop !13

.preheader114:                                    ; preds = %.preheader115, %.preheader114
  %19 = phi i1 [ true, %.preheader115 ], [ false, %.preheader114 ]
  %indvars.iv184.sroa.phi = phi ptr [ %.sroa.0, %.preheader115 ], [ %.sroa.14, %.preheader114 ]
  %indvars.iv184.sroa.phi226 = phi ptr [ %.sroa.7, %.preheader115 ], [ %.sroa.21, %.preheader114 ]
  %indvars.iv184 = phi i64 [ 0, %.preheader115 ], [ 2, %.preheader114 ]
  %20 = or disjoint i64 %indvars.iv184, 1
  %21 = getelementptr inbounds nuw [8 x i32], ptr @_ZN13MarchingCubes9cornerMapE, i64 0, i64 %20
  %22 = load i32, ptr %21, align 4
  %23 = shl nuw i32 1, %22
  %24 = and i32 %23, %7
  store i32 %24, ptr %indvars.iv184.sroa.phi, align 8
  %25 = or disjoint i64 %indvars.iv184, 5
  %26 = getelementptr inbounds nuw [8 x i32], ptr @_ZN13MarchingCubes9cornerMapE, i64 0, i64 %25
  %27 = load i32, ptr %26, align 4
  %28 = shl nuw i32 1, %27
  %29 = and i32 %28, %7
  store i32 %29, ptr %indvars.iv184.sroa.phi226, align 4
  br i1 %19, label %.preheader114, label %.thread111, !llvm.loop !14

.preheader117:                                    ; preds = %.preheader118, %.preheader117
  %30 = phi i1 [ true, %.preheader118 ], [ false, %.preheader117 ]
  %indvars.iv177.sroa.phi = phi ptr [ %.sroa.0, %.preheader118 ], [ %.sroa.14, %.preheader117 ]
  %indvars.iv177.sroa.phi229 = phi ptr [ %.sroa.7, %.preheader118 ], [ %.sroa.21, %.preheader117 ]
  %indvars.iv177 = phi i64 [ 0, %.preheader118 ], [ 1, %.preheader117 ]
  %31 = getelementptr inbounds nuw [8 x i32], ptr @_ZN13MarchingCubes9cornerMapE, i64 0, i64 %indvars.iv177
  %32 = load i32, ptr %31, align 4
  %33 = shl nuw i32 1, %32
  %34 = and i32 %33, %6
  store i32 %34, ptr %indvars.iv177.sroa.phi, align 8
  %35 = or disjoint i64 %indvars.iv177, 4
  %36 = getelementptr inbounds nuw [8 x i32], ptr @_ZN13MarchingCubes9cornerMapE, i64 0, i64 %35
  %37 = load i32, ptr %36, align 4
  %38 = shl nuw i32 1, %37
  %39 = and i32 %38, %6
  store i32 %39, ptr %indvars.iv177.sroa.phi229, align 4
  br i1 %30, label %.preheader117, label %.thread111, !llvm.loop !15

.preheader120:                                    ; preds = %.preheader121, %.preheader120
  %40 = phi i1 [ true, %.preheader121 ], [ false, %.preheader120 ]
  %indvars.iv170.sroa.phi = phi ptr [ %.sroa.0, %.preheader121 ], [ %.sroa.14, %.preheader120 ]
  %indvars.iv170.sroa.phi232 = phi ptr [ %.sroa.7, %.preheader121 ], [ %.sroa.21, %.preheader120 ]
  %indvars.iv170 = phi i64 [ 0, %.preheader121 ], [ 1, %.preheader120 ]
  %41 = or disjoint i64 %indvars.iv170, 2
  %42 = getelementptr inbounds nuw [8 x i32], ptr @_ZN13MarchingCubes9cornerMapE, i64 0, i64 %41
  %43 = load i32, ptr %42, align 4
  %44 = shl nuw i32 1, %43
  %45 = and i32 %44, %5
  store i32 %45, ptr %indvars.iv170.sroa.phi, align 8
  %46 = or disjoint i64 %indvars.iv170, 6
  %47 = getelementptr inbounds nuw [8 x i32], ptr @_ZN13MarchingCubes9cornerMapE, i64 0, i64 %46
  %48 = load i32, ptr %47, align 4
  %49 = shl nuw i32 1, %48
  %50 = and i32 %49, %5
  store i32 %50, ptr %indvars.iv170.sroa.phi232, align 4
  br i1 %40, label %.preheader120, label %.thread111, !llvm.loop !16

.preheader123:                                    ; preds = %.preheader124, %.preheader123
  %51 = phi i1 [ true, %.preheader124 ], [ false, %.preheader123 ]
  %indvars.iv162.sroa.phi = phi ptr [ %.sroa.0, %.preheader124 ], [ %.sroa.14, %.preheader123 ]
  %indvars.iv162.sroa.phi235 = phi ptr [ %.sroa.7, %.preheader124 ], [ %.sroa.21, %.preheader123 ]
  %indvars.iv162 = phi i64 [ 0, %.preheader124 ], [ 1, %.preheader123 ]
  %52 = or disjoint i64 %indvars.iv162, 4
  %53 = getelementptr inbounds nuw [8 x i32], ptr @_ZN13MarchingCubes9cornerMapE, i64 0, i64 %52
  %54 = load i32, ptr %53, align 4
  %55 = shl nuw i32 1, %54
  %56 = and i32 %55, %4
  store i32 %56, ptr %indvars.iv162.sroa.phi, align 8
  %57 = or disjoint i64 %indvars.iv162, 6
  %58 = getelementptr inbounds nuw [8 x i32], ptr @_ZN13MarchingCubes9cornerMapE, i64 0, i64 %57
  %59 = load i32, ptr %58, align 4
  %60 = shl nuw i32 1, %59
  %61 = and i32 %60, %4
  store i32 %61, ptr %indvars.iv162.sroa.phi235, align 4
  br i1 %51, label %.preheader123, label %.thread111, !llvm.loop !17

.preheader126:                                    ; preds = %.preheader127, %.preheader126
  %62 = phi i1 [ true, %.preheader127 ], [ false, %.preheader126 ]
  %indvars.iv154.sroa.phi = phi ptr [ %.sroa.0, %.preheader127 ], [ %.sroa.14, %.preheader126 ]
  %indvars.iv154.sroa.phi238 = phi ptr [ %.sroa.7, %.preheader127 ], [ %.sroa.21, %.preheader126 ]
  %indvars.iv154 = phi i64 [ 0, %.preheader127 ], [ 1, %.preheader126 ]
  %63 = or disjoint i64 %indvars.iv154, 4
  %64 = getelementptr inbounds nuw [8 x i32], ptr @_ZN13MarchingCubes9cornerMapE, i64 0, i64 %63
  %65 = load i32, ptr %64, align 4
  %66 = shl nuw i32 1, %65
  %67 = and i32 %66, %3
  store i32 %67, ptr %indvars.iv154.sroa.phi, align 8
  %68 = or disjoint i64 %indvars.iv154, 6
  %69 = getelementptr inbounds nuw [8 x i32], ptr @_ZN13MarchingCubes9cornerMapE, i64 0, i64 %68
  %70 = load i32, ptr %69, align 4
  %71 = shl nuw i32 1, %70
  %72 = and i32 %71, %3
  store i32 %72, ptr %indvars.iv154.sroa.phi238, align 4
  br i1 %62, label %.preheader126, label %.thread111, !llvm.loop !18

.thread111:                                       ; preds = %.preheader126, %.preheader123, %.preheader120, %.preheader117, %.preheader114, %.preheader, %2
  %.sroa.0.0..sroa.0.0. = load i32, ptr %.sroa.0, align 16
  %.not75 = icmp ne i32 %.sroa.0.0..sroa.0.0., 0
  %spec.select = zext i1 %.not75 to i8
  %.sroa.14.0..sroa.14.8. = load i32, ptr %.sroa.14, align 8
  %.not76 = icmp eq i32 %.sroa.14.0..sroa.14.8., 0
  %73 = or disjoint i8 %spec.select, 2
  %.1 = select i1 %.not76, i8 %spec.select, i8 %73
  %.sroa.21.0..sroa.21.12. = load i32, ptr %.sroa.21, align 4
  %.not77 = icmp eq i32 %.sroa.21.0..sroa.21.12., 0
  %74 = or disjoint i8 %.1, 4
  %.2 = select i1 %.not77, i8 %.1, i8 %74
  %.sroa.7.0..sroa.7.4. = load i32, ptr %.sroa.7, align 4
  %.not78 = icmp eq i32 %.sroa.7.0..sroa.7.4., 0
  %75 = or disjoint i8 %.2, 8
  %.3 = select i1 %.not78, i8 %.2, i8 %75
  ret i8 %.3
}